target datalayout = "e-m:e-p270:32:32-p271:32:32-p272:64:64-i64:64-i128:128-f80:128-n8:16:32:64-S128"
target triple = "x86_64-pc-linux-gnu"

%struct.lzma_filter = type { i64, ptr }
%struct.lzma_stream = type { ptr, i64, i64, ptr, i64, i64, ptr, ptr, ptr, ptr, ptr, ptr, i64, i64, i64, i64, i32, i32 }
%struct.lzma_internal_s = type { %struct.lzma_next_coder_s, i32, i64, [5 x i8], i8 }
%struct.lzma_next_coder_s = type { ptr, i64, i64, ptr, ptr, ptr, ptr, ptr, ptr }

; Function Attrs: nounwind willreturn memory(read) uwtable
define dso_local i64 @lzma_raw_encoder_memusage(ptr noundef %0) #2 {
  %2 = alloca ptr, align 8
  store ptr %0, ptr %2, align 8
  %3 = load ptr, ptr %2, align 8
  %4 = call i64 @lzma_raw_coder_memusage(ptr noundef @encoder_find, ptr noundef %3)
  ret i64 %4
}

; Function Attrs: nounwind uwtable
define dso_local i32 @lzma_filters_update(ptr noundef %0, ptr noundef %1) #1 {
  %3 = alloca i32, align 4
  %4 = alloca ptr, align 8
  %5 = alloca ptr, align 8
  %6 = alloca i64, align 8
  %7 = alloca [5 x %struct.lzma_filter], align 16
  %8 = alloca i64, align 8
  store ptr %0, ptr %4, align 8
  store ptr %1, ptr %5, align 8
  %9 = load ptr, ptr %4, align 8
  %10 = getelementptr inbounds %struct.lzma_stream, ptr %9, i32 0, i32 7
  %11 = load ptr, ptr %10, align 8
  %12 = getelementptr inbounds %struct.lzma_internal_s, ptr %11, i32 0, i32 0
  %13 = getelementptr inbounds %struct.lzma_next_coder_s, ptr %12, i32 0, i32 8
  %14 = load ptr, ptr %13, align 8
  %15 = icmp eq ptr %14, null
  br i1 %15, label %16, label %17

16:                                               ; preds = %2
  store i32 11, ptr %3, align 4
  br label %72

17:                                               ; preds = %2
  %18 = load ptr, ptr %5, align 8
  %19 = call i64 @lzma_raw_encoder_memusage(ptr noundef %18) #6
  %20 = icmp eq i64 %19, -1
  br i1 %20, label %21, label %22

21:                                               ; preds = %17
  store i32 8, ptr %3, align 4
  br label %72

22:                                               ; preds = %17
  store i64 1, ptr %6, align 8
  br label %23

23:                                               ; preds = %30, %22
  %24 = load ptr, ptr %5, align 8
  %25 = load i64, ptr %6, align 8
  %26 = getelementptr inbounds %struct.lzma_filter, ptr %24, i64 %25
  %27 = getelementptr inbounds %struct.lzma_filter, ptr %26, i32 0, i32 0
  %28 = load i64, ptr %27, align 8
  %29 = icmp ne i64 %28, -1
  br i1 %29, label %30, label %33

30:                                               ; preds = %23
  %31 = load i64, ptr %6, align 8
  %32 = add i64 %31, 1
  store i64 %32, ptr %6, align 8
  br label %23, !llvm.loop !7

33:                                               ; preds = %23
  store i64 0, ptr %8, align 8
  br label %34

34:                                               ; preds = %47, %33
  %35 = load i64, ptr %8, align 8
  %36 = load i64, ptr %6, align 8
  %37 = icmp ult i64 %35, %36
  br i1 %37, label %38, label %50

38:                                               ; preds = %34
  %39 = load i64, ptr %6, align 8
  %40 = load i64, ptr %8, align 8
  %41 = sub i64 %39, %40
  %42 = sub i64 %41, 1
  %43 = getelementptr inbounds [5 x %struct.lzma_filter], ptr %7, i64 0, i64 %42
  %44 = load ptr, ptr %5, align 8
  %45 = load i64, ptr %8, align 8
  %46 = getelementptr inbounds %struct.lzma_filter, ptr %44, i64 %45
  call void @llvm.memcpy.p0.p0.i64(ptr align 16 %43, ptr align 8 %46, i64 16, i1 false)
  br label %47

47:                                               ; preds = %38
  %48 = load i64, ptr %8, align 8
  %49 = add i64 %48, 1
  store i64 %49, ptr %8, align 8
  br label %34, !llvm.loop !8

50:                                               ; preds = %34
  %51 = load i64, ptr %6, align 8
  %52 = getelementptr inbounds [5 x %struct.lzma_filter], ptr %7, i64 0, i64 %51
  %53 = getelementptr inbounds %struct.lzma_filter, ptr %52, i32 0, i32 0
  store i64 -1, ptr %53, align 16
  %54 = load ptr, ptr %4, align 8
  %55 = getelementptr inbounds %struct.lzma_stream, ptr %54, i32 0, i32 7
  %56 = load ptr, ptr %55, align 8
  %57 = getelementptr inbounds %struct.lzma_internal_s, ptr %56, i32 0, i32 0
  %58 = getelementptr inbounds %struct.lzma_next_coder_s, ptr %57, i32 0, i32 8
  %59 = load ptr, ptr %58, align 8
  %60 = load ptr, ptr %4, align 8
  %61 = getelementptr inbounds %struct.lzma_stream, ptr %60, i32 0, i32 7
  %62 = load ptr, ptr %61, align 8
  %63 = getelementptr inbounds %struct.lzma_internal_s, ptr %62, i32 0, i32 0
  %64 = getelementptr inbounds %struct.lzma_next_coder_s, ptr %63, i32 0, i32 0
  %65 = load ptr, ptr %64, align 8
  %66 = load ptr, ptr %4, align 8
  %67 = getelementptr inbounds %struct.lzma_stream, ptr %66, i32 0, i32 6
  %68 = load ptr, ptr %67, align 8
  %69 = load ptr, ptr %5, align 8
  %70 = getelementptr inbounds [5 x %struct.lzma_filter], ptr %7, i64 0, i64 0
  %71 = call i32 %59(ptr noundef %65, ptr noundef %68, ptr noundef %69, ptr noundef %70)
  store i32 %71, ptr %3, align 4
  br label %72

72:                                               ; preds = %50, %21, %16
  %73 = load i32, ptr %3, align 4
  ret i32 %73
}