; Function Attrs: nounwind uwtable
define dso_local i32 @lzma_filters_update(ptr noundef readonly captures(none) %0, ptr noundef %1) local_unnamed_addr #2 {
  %3 = alloca [5 x %struct.lzma_filter], align 16
  %4 = getelementptr inbounds nuw i8, ptr %0, i64 56
  %5 = load ptr, ptr %4, align 8
  %6 = getelementptr inbounds nuw i8, ptr %5, i64 64
  %7 = load ptr, ptr %6, align 8
  %8 = icmp eq ptr %7, null
  br i1 %8, label %28, label %9

9:                                                ; preds = %2
  %10 = tail call i64 @lzma_raw_coder_memusage(ptr noundef nonnull @encoder_find, ptr noundef %1) #9
  %11 = icmp eq i64 %10, -1
  br i1 %11, label %28, label %.preheader19

.preheader19:                                     ; preds = %9, %.preheader19
  %.017 = phi i64 [ %14, %.preheader19 ], [ 1, %9 ]
  %12 = getelementptr inbounds %struct.lzma_filter, ptr %1, i64 %.017
  %13 = load i64, ptr %12, align 8
  %.not = icmp eq i64 %13, -1
  %14 = add i64 %.017, 1
  br i1 %.not, label %.preheader, label %.preheader19, !llvm.loop !7

.preheader:                                       ; preds = %.preheader19
  %.not21 = icmp eq i64 %.017, 0
  br i1 %.not21, label %._crit_edge, label %.lr.ph

.lr.ph:                                           ; preds = %.preheader, %.lr.ph
  %.020 = phi i64 [ %19, %.lr.ph ], [ 0, %.preheader ]
  %15 = xor i64 %.020, -1
  %16 = add i64 %.017, %15
  %17 = getelementptr inbounds [5 x %struct.lzma_filter], ptr %3, i64 0, i64 %16
  %18 = getelementptr inbounds %struct.lzma_filter, ptr %1, i64 %.020
  call void @llvm.memcpy.p0.p0.i64(ptr noundef nonnull align 16 dereferenceable(16) %17, ptr noundef nonnull align 8 dereferenceable(16) %18, i64 16, i1 false)
  %19 = add nuw i64 %.020, 1
  %exitcond.not = icmp eq i64 %19, %.017
  br i1 %exitcond.not, label %._crit_edge, label %.lr.ph, !llvm.loop !8

._crit_edge:                                      ; preds = %.lr.ph, %.preheader
  %20 = getelementptr inbounds [5 x %struct.lzma_filter], ptr %3, i64 0, i64 %.017
  store i64 -1, ptr %20, align 16
  %21 = load ptr, ptr %4, align 8
  %22 = getelementptr inbounds nuw i8, ptr %21, i64 64
  %23 = load ptr, ptr %22, align 8
  %24 = load ptr, ptr %21, align 8
  %25 = getelementptr inbounds nuw i8, ptr %0, i64 48
  %26 = load ptr, ptr %25, align 8
  %27 = call i32 %23(ptr noundef %24, ptr noundef %26, ptr noundef nonnull %1, ptr noundef nonnull %3) #9
  br label %28

28:                                               ; preds = %9, %2, %._crit_edge
  %.018 = phi i32 [ %27, %._crit_edge ], [ 11, %2 ], [ 8, %9 ]
  ret i32 %.018
}